target datalayout = "e-m:e-p270:32:32-p271:32:32-p272:64:64-i64:64-i128:128-f80:128-n8:16:32:64-S128"
target triple = "x86_64-pc-linux-gnu"

%struct._packet_info = type { ptr, ptr, i32, i32, %struct.nstime_t, %struct.nstime_t, %struct.nstime_t, i8, ptr, ptr, ptr, ptr, %struct._address, %struct._address, %struct._address, %struct._address, %struct._address, %struct._address, i32, ptr, i8, [3 x i8], %struct.anon, i32, i32, i32, i32, ptr, i8, ptr, ptr, i16, i16, i32, i32, i16, i32, i32, ptr, ptr, ptr, i8, i8, i16, i16, i16, i32, i16, i16, ptr, ptr, ptr, ptr, ptr, i32, i32 }
%struct.nstime_t = type { i64, i32 }
%struct._address = type { i32, i32, ptr, ptr }
%struct.anon = type { i8, [3 x i8] }
%struct.tm = type { i32, i32, i32, i32, i32, i32, i32, i32, i32, i64, ptr }

@.str.965 = private unnamed_addr constant [3 x i8] c"%s\00", align 1

; Function Attrs: null_pointer_is_valid sspstrong uwtable
define internal zeroext i1 @smpp_mktime(ptr noundef %0, ptr noundef %1, ptr noundef %2) #0 {
  %4 = alloca i1, align 1
  %5 = alloca ptr, align 8
  %6 = alloca ptr, align 8
  %7 = alloca ptr, align 8
  %8 = alloca %struct.tm, align 8
  %9 = alloca i64, align 8
  %10 = alloca i8, align 1
  %11 = alloca i32, align 4
  store ptr %0, ptr %5, align 8
  store ptr %1, ptr %6, align 8
  store ptr %2, ptr %7, align 8
  call void @llvm.lifetime.start.p0(i64 56, ptr %8) #10
  call void @llvm.lifetime.start.p0(i64 8, ptr %9) #10
  call void @llvm.lifetime.start.p0(i64 1, ptr %10) #10
  %12 = load ptr, ptr %5, align 8
  %13 = getelementptr i8, ptr %12, i64 15
  %14 = load i8, ptr %13, align 1
  %15 = sext i8 %14 to i32
  %16 = icmp eq i32 %15, 82
  %17 = select i1 %16, i32 1, i32 0
  %18 = icmp ne i32 %17, 0
  %19 = zext i1 %18 to i8
  store i8 %19, ptr %10, align 1
  %20 = load ptr, ptr %5, align 8
  %21 = getelementptr i8, ptr %20, i64 0
  %22 = load i8, ptr %21, align 1
  %23 = sext i8 %22 to i32
  %24 = sub i32 %23, 48
  %25 = mul i32 10, %24
  %26 = load ptr, ptr %5, align 8
  %27 = getelementptr i8, ptr %26, i64 1
  %28 = load i8, ptr %27, align 1
  %29 = sext i8 %28 to i32
  %30 = sub i32 %29, 48
  %31 = add i32 %25, %30
  %32 = getelementptr inbounds nuw %struct.tm, ptr %8, i32 0, i32 5
  store i32 %31, ptr %32, align 4
  %33 = getelementptr inbounds nuw %struct.tm, ptr %8, i32 0, i32 5
  %34 = load i32, ptr %33, align 4
  %35 = icmp slt i32 %34, 38
  br i1 %35, label %36, label %40

36:                                               ; preds = %3
  %37 = getelementptr inbounds nuw %struct.tm, ptr %8, i32 0, i32 5
  %38 = load i32, ptr %37, align 4
  %39 = add i32 %38, 100
  store i32 %39, ptr %37, align 4
  br label %40

40:                                               ; preds = %36, %3
  %41 = load ptr, ptr %5, align 8
  %42 = getelementptr i8, ptr %41, i64 2
  %43 = load i8, ptr %42, align 1
  %44 = sext i8 %43 to i32
  %45 = sub i32 %44, 48
  %46 = mul i32 10, %45
  %47 = load ptr, ptr %5, align 8
  %48 = getelementptr i8, ptr %47, i64 3
  %49 = load i8, ptr %48, align 1
  %50 = sext i8 %49 to i32
  %51 = sub i32 %50, 48
  %52 = add i32 %46, %51
  %53 = getelementptr inbounds nuw %struct.tm, ptr %8, i32 0, i32 4
  store i32 %52, ptr %53, align 8
  %54 = getelementptr inbounds nuw %struct.tm, ptr %8, i32 0, i32 4
  %55 = load i32, ptr %54, align 8
  %56 = add i32 %55, -1
  store i32 %56, ptr %54, align 8
  %57 = load ptr, ptr %5, align 8
  %58 = getelementptr i8, ptr %57, i64 4
  %59 = load i8, ptr %58, align 1
  %60 = sext i8 %59 to i32
  %61 = sub i32 %60, 48
  %62 = mul i32 10, %61
  %63 = load ptr, ptr %5, align 8
  %64 = getelementptr i8, ptr %63, i64 5
  %65 = load i8, ptr %64, align 1
  %66 = sext i8 %65 to i32
  %67 = sub i32 %66, 48
  %68 = add i32 %62, %67
  %69 = getelementptr inbounds nuw %struct.tm, ptr %8, i32 0, i32 3
  store i32 %68, ptr %69, align 4
  %70 = load ptr, ptr %5, align 8
  %71 = getelementptr i8, ptr %70, i64 6
  %72 = load i8, ptr %71, align 1
  %73 = sext i8 %72 to i32
  %74 = sub i32 %73, 48
  %75 = mul i32 10, %74
  %76 = load ptr, ptr %5, align 8
  %77 = getelementptr i8, ptr %76, i64 7
  %78 = load i8, ptr %77, align 1
  %79 = sext i8 %78 to i32
  %80 = sub i32 %79, 48
  %81 = add i32 %75, %80
  %82 = getelementptr inbounds nuw %struct.tm, ptr %8, i32 0, i32 2
  store i32 %81, ptr %82, align 8
  %83 = load ptr, ptr %5, align 8
  %84 = getelementptr i8, ptr %83, i64 8
  %85 = load i8, ptr %84, align 1
  %86 = sext i8 %85 to i32
  %87 = sub i32 %86, 48
  %88 = mul i32 10, %87
  %89 = load ptr, ptr %5, align 8
  %90 = getelementptr i8, ptr %89, i64 9
  %91 = load i8, ptr %90, align 1
  %92 = sext i8 %91 to i32
  %93 = sub i32 %92, 48
  %94 = add i32 %88, %93
  %95 = getelementptr inbounds nuw %struct.tm, ptr %8, i32 0, i32 1
  store i32 %94, ptr %95, align 4
  %96 = load ptr, ptr %5, align 8
  %97 = getelementptr i8, ptr %96, i64 10
  %98 = load i8, ptr %97, align 1
  %99 = sext i8 %98 to i32
  %100 = sub i32 %99, 48
  %101 = mul i32 10, %100
  %102 = load ptr, ptr %5, align 8
  %103 = getelementptr i8, ptr %102, i64 11
  %104 = load i8, ptr %103, align 1
  %105 = sext i8 %104 to i32
  %106 = sub i32 %105, 48
  %107 = add i32 %101, %106
  %108 = getelementptr inbounds nuw %struct.tm, ptr %8, i32 0, i32 0
  store i32 %107, ptr %108, align 8
  %109 = getelementptr inbounds nuw %struct.tm, ptr %8, i32 0, i32 8
  store i32 -1, ptr %109, align 8
  %110 = load i8, ptr %10, align 1, !range !6, !noundef !7
  %111 = trunc i8 %110 to i1
  %112 = zext i1 %111 to i32
  %113 = icmp eq i32 %112, 0
  br i1 %113, label %114, label %169

114:                                              ; preds = %40
  %115 = call i64 @mktime_utc(ptr noundef %8)
  %116 = load ptr, ptr %6, align 8
  store i64 %115, ptr %116, align 8
  %117 = load ptr, ptr %7, align 8
  store i32 0, ptr %117, align 4
  %118 = load ptr, ptr %6, align 8
  %119 = load i64, ptr %118, align 8
  %120 = icmp eq i64 %119, -1
  br i1 %120, label %121, label %124

121:                                              ; preds = %114
  %122 = load i8, ptr %10, align 1, !range !6, !noundef !7
  %123 = trunc i8 %122 to i1
  store i1 %123, ptr %4, align 1
  store i32 1, ptr %11, align 4
  br label %190

124:                                              ; preds = %114
  %125 = load ptr, ptr %5, align 8
  %126 = getelementptr i8, ptr %125, i64 12
  %127 = load i8, ptr %126, align 1
  %128 = sext i8 %127 to i32
  %129 = sub i32 %128, 48
  %130 = mul i32 %129, 100000000
  %131 = load ptr, ptr %7, align 8
  store i32 %130, ptr %131, align 4
  %132 = load ptr, ptr %5, align 8
  %133 = getelementptr i8, ptr %132, i64 13
  %134 = load i8, ptr %133, align 1
  %135 = sext i8 %134 to i32
  %136 = sub i32 %135, 48
  %137 = mul i32 10, %136
  %138 = load ptr, ptr %5, align 8
  %139 = getelementptr i8, ptr %138, i64 14
  %140 = load i8, ptr %139, align 1
  %141 = sext i8 %140 to i32
  %142 = sub i32 %141, 48
  %143 = add i32 %137, %142
  %144 = mul i32 %143, 900
  %145 = sext i32 %144 to i64
  store i64 %145, ptr %9, align 8
  %146 = load ptr, ptr %5, align 8
  %147 = getelementptr i8, ptr %146, i64 15
  %148 = load i8, ptr %147, align 1
  %149 = sext i8 %148 to i32
  %150 = icmp eq i32 %149, 45
  br i1 %150, label %151, label %156

151:                                              ; preds = %124
  %152 = load i64, ptr %9, align 8
  %153 = load ptr, ptr %6, align 8
  %154 = load i64, ptr %153, align 8
  %155 = add i64 %154, %152
  store i64 %155, ptr %153, align 8
  br label %168

156:                                              ; preds = %124
  %157 = load ptr, ptr %5, align 8
  %158 = getelementptr i8, ptr %157, i64 15
  %159 = load i8, ptr %158, align 1
  %160 = sext i8 %159 to i32
  %161 = icmp eq i32 %160, 43
  br i1 %161, label %162, label %167

162:                                              ; preds = %156
  %163 = load i64, ptr %9, align 8
  %164 = load ptr, ptr %6, align 8
  %165 = load i64, ptr %164, align 8
  %166 = sub i64 %165, %163
  store i64 %166, ptr %164, align 8
  br label %167

167:                                              ; preds = %162, %156
  br label %168

168:                                              ; preds = %167, %151
  br label %187

169:                                              ; preds = %40
  %170 = getelementptr inbounds nuw %struct.tm, ptr %8, i32 0, i32 0
  %171 = load i32, ptr %170, align 8
  %172 = getelementptr inbounds nuw %struct.tm, ptr %8, i32 0, i32 1
  %173 = load i32, ptr %172, align 4
  %174 = getelementptr inbounds nuw %struct.tm, ptr %8, i32 0, i32 2
  %175 = load i32, ptr %174, align 8
  %176 = getelementptr inbounds nuw %struct.tm, ptr %8, i32 0, i32 3
  %177 = load i32, ptr %176, align 4
  %178 = mul i32 24, %177
  %179 = add i32 %175, %178
  %180 = mul i32 60, %179
  %181 = add i32 %173, %180
  %182 = mul i32 60, %181
  %183 = add i32 %171, %182
  %184 = sext i32 %183 to i64
  %185 = load ptr, ptr %6, align 8
  store i64 %184, ptr %185, align 8
  %186 = load ptr, ptr %7, align 8
  store i32 0, ptr %186, align 4
  br label %187

187:                                              ; preds = %169, %168
  %188 = load i8, ptr %10, align 1, !range !6, !noundef !7
  %189 = trunc i8 %188 to i1
  store i1 %189, ptr %4, align 1
  store i32 1, ptr %11, align 4
  br label %190

190:                                              ; preds = %187, %121
  call void @llvm.lifetime.end.p0(i64 1, ptr %10) #10
  call void @llvm.lifetime.end.p0(i64 8, ptr %9) #10
  call void @llvm.lifetime.end.p0(i64 56, ptr %8) #10
  %191 = load i1, ptr %4, align 1
  ret i1 %191
}

; Function Attrs: null_pointer_is_valid sspstrong uwtable
define internal void @smpp_handle_time(ptr noundef %0, ptr noundef %1, ptr noundef %2, i32 noundef %3, i32 noundef %4, ptr noundef %5) #0 {
  %7 = alloca ptr, align 8
  %8 = alloca ptr, align 8
  %9 = alloca ptr, align 8
  %10 = alloca i32, align 4
  %11 = alloca i32, align 4
  %12 = alloca ptr, align 8
  %13 = alloca ptr, align 8
  %14 = alloca i32, align 4
  %15 = alloca %struct.nstime_t, align 8
  store ptr %0, ptr %7, align 8
  store ptr %1, ptr %8, align 8
  store ptr %2, ptr %9, align 8
  store i32 %3, ptr %10, align 4
  store i32 %4, ptr %11, align 4
  store ptr %5, ptr %12, align 8
  call void @llvm.lifetime.start.p0(i64 8, ptr %13) #10
  call void @llvm.lifetime.start.p0(i64 4, ptr %14) #10
  call void @llvm.lifetime.start.p0(i64 16, ptr %15) #10
  %16 = load ptr, ptr %9, align 8
  %17 = getelementptr inbounds nuw %struct._packet_info, ptr %16, i32 0, i32 51
  %18 = load ptr, ptr %17, align 8
  %19 = load ptr, ptr %8, align 8
  %20 = load ptr, ptr %12, align 8
  %21 = load i32, ptr %20, align 4
  %22 = call ptr @tvb_get_stringz_enc(ptr noundef %18, ptr noundef %19, i32 noundef %21, ptr noundef %14, i32 noundef 0)
  store ptr %22, ptr %13, align 8
  %23 = load ptr, ptr %13, align 8
  %24 = load i8, ptr %23, align 1
  %25 = icmp ne i8 %24, 0
  br i1 %25, label %26, label %63

26:                                               ; preds = %6
  %27 = load i32, ptr %14, align 4
  %28 = icmp sge i32 %27, 16
  br i1 %28, label %29, label %51

29:                                               ; preds = %26
  %30 = load ptr, ptr %13, align 8
  %31 = getelementptr inbounds nuw %struct.nstime_t, ptr %15, i32 0, i32 0
  %32 = getelementptr inbounds nuw %struct.nstime_t, ptr %15, i32 0, i32 1
  %33 = call zeroext i1 @smpp_mktime(ptr noundef %30, ptr noundef %31, ptr noundef %32)
  br i1 %33, label %34, label %42

34:                                               ; preds = %29
  %35 = load ptr, ptr %7, align 8
  %36 = load i32, ptr %11, align 4
  %37 = load ptr, ptr %8, align 8
  %38 = load ptr, ptr %12, align 8
  %39 = load i32, ptr %38, align 4
  %40 = load i32, ptr %14, align 4
  %41 = call ptr @proto_tree_add_time(ptr noundef %35, i32 noundef %36, ptr noundef %37, i32 noundef %39, i32 noundef %40, ptr noundef %15)
  br label %50

42:                                               ; preds = %29
  %43 = load ptr, ptr %7, align 8
  %44 = load i32, ptr %10, align 4
  %45 = load ptr, ptr %8, align 8
  %46 = load ptr, ptr %12, align 8
  %47 = load i32, ptr %46, align 4
  %48 = load i32, ptr %14, align 4
  %49 = call ptr @proto_tree_add_time(ptr noundef %43, i32 noundef %44, ptr noundef %45, i32 noundef %47, i32 noundef %48, ptr noundef %15)
  br label %50

50:                                               ; preds = %42, %34
  br label %62

51:                                               ; preds = %26
  %52 = getelementptr inbounds nuw %struct.nstime_t, ptr %15, i32 0, i32 0
  store i64 0, ptr %52, align 8
  %53 = getelementptr inbounds nuw %struct.nstime_t, ptr %15, i32 0, i32 1
  store i32 0, ptr %53, align 8
  %54 = load ptr, ptr %7, align 8
  %55 = load i32, ptr %11, align 4
  %56 = load ptr, ptr %8, align 8
  %57 = load ptr, ptr %12, align 8
  %58 = load i32, ptr %57, align 4
  %59 = load i32, ptr %14, align 4
  %60 = load ptr, ptr %13, align 8
  %61 = call ptr (ptr, i32, ptr, i32, i32, ptr, ptr, ...) @proto_tree_add_time_format_value(ptr noundef %54, i32 noundef %55, ptr noundef %56, i32 noundef %58, i32 noundef %59, ptr noundef %15, ptr noundef @.str.965, ptr noundef %60)
  br label %62

62:                                               ; preds = %51, %50
  br label %63

63:                                               ; preds = %62, %6
  %64 = load i32, ptr %14, align 4
  %65 = load ptr, ptr %12, align 8
  %66 = load i32, ptr %65, align 4
  %67 = add i32 %66, %64
  store i32 %67, ptr %65, align 4
  call void @llvm.lifetime.end.p0(i64 16, ptr %15) #10
  call void @llvm.lifetime.end.p0(i64 4, ptr %14) #10
  call void @llvm.lifetime.end.p0(i64 8, ptr %13) #10
  ret void
}