; Function Attrs: null_pointer_is_valid sspstrong uwtable
define internal fastcc void @smpp_handle_time(ptr noundef %0, ptr noundef %1, ptr %.408.val, i32 noundef %2, i32 noundef %3, ptr noundef captures(none) %4) unnamed_addr #0 {
  %6 = alloca %struct.tm, align 8
  %7 = alloca i32, align 4
  %8 = alloca %struct.nstime_t, align 8
  call void @llvm.lifetime.start.p0(i64 4, ptr nonnull %7) #10
  call void @llvm.lifetime.start.p0(i64 16, ptr nonnull %8) #10
  %9 = load i32, ptr %4, align 4
  %10 = call ptr @tvb_get_stringz_enc(ptr noundef %.408.val, ptr noundef %1, i32 noundef %9, ptr noundef nonnull %7, i32 noundef 0)
  %11 = load i8, ptr %10, align 1
  %.not = icmp eq i8 %11, 0
  br i1 %.not, label %120, label %12

12:                                               ; preds = %5
  %13 = load i32, ptr %7, align 4
  %14 = icmp sgt i32 %13, 15
  br i1 %14, label %15, label %116

15:                                               ; preds = %12
  %16 = getelementptr inbounds nuw i8, ptr %8, i64 8
  call void @llvm.lifetime.start.p0(i64 56, ptr nonnull %6) #10
  %17 = getelementptr i8, ptr %10, i64 15
  %18 = load i8, ptr %17, align 1
  %19 = icmp eq i8 %18, 82
  %20 = sext i8 %11 to i32
  %21 = mul nsw i32 %20, 10
  %22 = getelementptr i8, ptr %10, i64 1
  %23 = load i8, ptr %22, align 1
  %24 = sext i8 %23 to i32
  %25 = add nsw i32 %21, %24
  %26 = getelementptr inbounds nuw i8, ptr %6, i64 20
  %27 = icmp slt i32 %25, 566
  %spec.select.v.i = select i1 %27, i32 -428, i32 -528
  %spec.select.i = add nsw i32 %spec.select.v.i, %25
  store i32 %spec.select.i, ptr %26, align 4
  %28 = getelementptr i8, ptr %10, i64 2
  %29 = load i8, ptr %28, align 1
  %30 = sext i8 %29 to i32
  %31 = mul nsw i32 %30, 10
  %32 = getelementptr i8, ptr %10, i64 3
  %33 = load i8, ptr %32, align 1
  %34 = sext i8 %33 to i32
  %35 = getelementptr inbounds nuw i8, ptr %6, i64 16
  %36 = add nsw i32 %34, -529
  %37 = add nsw i32 %36, %31
  store i32 %37, ptr %35, align 8
  %38 = getelementptr i8, ptr %10, i64 4
  %39 = load i8, ptr %38, align 1
  %40 = sext i8 %39 to i32
  %41 = mul nsw i32 %40, 10
  %42 = getelementptr i8, ptr %10, i64 5
  %43 = load i8, ptr %42, align 1
  %44 = sext i8 %43 to i32
  %45 = add nsw i32 %44, -528
  %46 = add nsw i32 %45, %41
  %47 = getelementptr inbounds nuw i8, ptr %6, i64 12
  store i32 %46, ptr %47, align 4
  %48 = getelementptr i8, ptr %10, i64 6
  %49 = load i8, ptr %48, align 1
  %50 = sext i8 %49 to i32
  %51 = mul nsw i32 %50, 10
  %52 = getelementptr i8, ptr %10, i64 7
  %53 = load i8, ptr %52, align 1
  %54 = sext i8 %53 to i32
  %55 = add nsw i32 %54, -528
  %56 = add nsw i32 %55, %51
  %57 = getelementptr inbounds nuw i8, ptr %6, i64 8
  store i32 %56, ptr %57, align 8
  %58 = getelementptr i8, ptr %10, i64 8
  %59 = load i8, ptr %58, align 1
  %60 = sext i8 %59 to i32
  %61 = mul nsw i32 %60, 10
  %62 = getelementptr i8, ptr %10, i64 9
  %63 = load i8, ptr %62, align 1
  %64 = sext i8 %63 to i32
  %65 = add nsw i32 %64, -528
  %66 = add nsw i32 %65, %61
  %67 = getelementptr inbounds nuw i8, ptr %6, i64 4
  store i32 %66, ptr %67, align 4
  %68 = getelementptr i8, ptr %10, i64 10
  %69 = load i8, ptr %68, align 1
  %70 = sext i8 %69 to i32
  %71 = mul nsw i32 %70, 10
  %72 = getelementptr i8, ptr %10, i64 11
  %73 = load i8, ptr %72, align 1
  %74 = sext i8 %73 to i32
  %75 = add nsw i32 %74, -528
  %76 = add nsw i32 %75, %71
  store i32 %76, ptr %6, align 8
  %77 = getelementptr inbounds nuw i8, ptr %6, i64 32
  store i32 -1, ptr %77, align 8
  br i1 %19, label %102, label %78

78:                                               ; preds = %15
  %79 = call i64 @mktime_utc(ptr noundef nonnull %6)
  store i64 %79, ptr %8, align 8
  store i32 0, ptr %16, align 8
  %80 = icmp eq i64 %79, -1
  br i1 %80, label %112, label %81

81:                                               ; preds = %78
  %82 = getelementptr i8, ptr %10, i64 12
  %83 = load i8, ptr %82, align 1
  %84 = sext i8 %83 to i32
  %85 = mul i32 %84, 100000000
  %86 = add i32 %85, -505032704
  store i32 %86, ptr %16, align 8
  %87 = getelementptr i8, ptr %10, i64 13
  %88 = load i8, ptr %87, align 1
  %89 = sext i8 %88 to i64
  %90 = mul nsw i64 %89, 10
  %91 = getelementptr i8, ptr %10, i64 14
  %92 = load i8, ptr %91, align 1
  %93 = sext i8 %92 to i64
  %94 = add nsw i64 %90, %93
  %95 = mul nsw i64 %94, 900
  %96 = add nsw i64 %95, -475200
  %97 = load i8, ptr %17, align 1
  switch i8 %97, label %112 [
    i8 45, label %98
    i8 43, label %100
  ]

98:                                               ; preds = %81
  %99 = add i64 %96, %79
  br label %.sink.split

100:                                              ; preds = %81
  %101 = sub i64 %79, %96
  br label %.sink.split

102:                                              ; preds = %15
  %103 = mul nsw i32 %46, 24
  %104 = add nsw i32 %56, %103
  %105 = mul nsw i32 %104, 60
  %106 = add nsw i32 %66, %105
  %107 = mul nsw i32 %106, 60
  %108 = add nsw i32 %76, %107
  %109 = sext i32 %108 to i64
  store i64 %109, ptr %8, align 8
  store i32 0, ptr %16, align 8
  call void @llvm.lifetime.end.p0(i64 56, ptr nonnull %6) #10
  %110 = load i32, ptr %4, align 4
  %111 = call ptr @proto_tree_add_time(ptr noundef %0, i32 noundef %3, ptr noundef %1, i32 noundef %110, i32 noundef %13, ptr noundef nonnull %8)
  br label %120

.sink.split:                                      ; preds = %100, %98
  %.sink = phi i64 [ %99, %98 ], [ %101, %100 ]
  store i64 %.sink, ptr %8, align 8
  br label %112

112:                                              ; preds = %.sink.split, %78, %81
  call void @llvm.lifetime.end.p0(i64 56, ptr nonnull %6) #10
  %113 = load i32, ptr %4, align 4
  %114 = load i32, ptr %7, align 4
  %115 = call ptr @proto_tree_add_time(ptr noundef %0, i32 noundef %2, ptr noundef %1, i32 noundef %113, i32 noundef %114, ptr noundef nonnull %8)
  br label %120

116:                                              ; preds = %12
  store i64 0, ptr %8, align 8
  %117 = getelementptr inbounds nuw i8, ptr %8, i64 8
  store i32 0, ptr %117, align 8
  %118 = load i32, ptr %4, align 4
  %119 = call ptr (ptr, i32, ptr, i32, i32, ptr, ptr, ...) @proto_tree_add_time_format_value(ptr noundef %0, i32 noundef %3, ptr noundef %1, i32 noundef %118, i32 noundef %13, ptr noundef nonnull %8, ptr noundef nonnull @.str.965, ptr noundef %10)
  br label %120

120:                                              ; preds = %116, %112, %102, %5
  %121 = load i32, ptr %7, align 4
  %122 = load i32, ptr %4, align 4
  %123 = add i32 %122, %121
  store i32 %123, ptr %4, align 4
  call void @llvm.lifetime.end.p0(i64 16, ptr nonnull %8) #10
  call void @llvm.lifetime.end.p0(i64 4, ptr nonnull %7) #10
  ret void
}